#include <math.h>
#include <stdio.h>
#include <stdlib.h>
#include <string.h>

int reverse(int num) 
{
    int retval = 0;
    while(num) 
    { 
    retval = retval*10 + num%10; 
    num=num/10; 
    } 
    return retval; 
} 
int main()
{
     int i,a[6],b[6];
     for(i=0;i<6;i++)
     {
         scanf("%d",&a[i]);
         b[i]=reverse(a[i]);
         printf("%d\n",b[i]);
     }
}

   
